target datalayout = "e-m:e-p270:32:32-p271:32:32-p272:64:64-i64:64-i128:128-f80:128-n8:16:32:64-S128"
target triple = "x86_64-pc-linux-gnu"

%struct.ScanKeyData = type { i32, i16, i16, i32, i32, %struct.FmgrInfo, i64 }
%struct.FmgrInfo = type { ptr, i32, i16, i8, i8, i8, ptr, ptr, ptr }
%struct.HeapTupleData = type { i32, %struct.ItemPointerData, i32, ptr }
%struct.ItemPointerData = type { %struct.BlockIdData, i16 }
%struct.BlockIdData = type { i16, i16 }

; Function Attrs: inlinehint nounwind uwtable
define internal i64 @Int32GetDatum(i32 noundef %0) #6 {
  %2 = alloca i32, align 4
  store i32 %0, ptr %2, align 4
  %3 = load i32, ptr %2, align 4
  %4 = sext i32 %3 to i64
  ret i64 %4
}

; Function Attrs: inlinehint nounwind uwtable
define internal i64 @ObjectIdGetDatum(i32 noundef %0) #6 {
  %2 = alloca i32, align 4
  store i32 %0, ptr %2, align 4
  %3 = load i32, ptr %2, align 4
  %4 = zext i32 %3 to i64
  ret i64 %4
}

; Function Attrs: nounwind uwtable
define dso_local void @DeleteComments(i32 noundef %0, i32 noundef %1, i32 noundef %2) #0 {
  %4 = alloca i32, align 4
  %5 = alloca i32, align 4
  %6 = alloca i32, align 4
  %7 = alloca ptr, align 8
  %8 = alloca [3 x %struct.ScanKeyData], align 16
  %9 = alloca i32, align 4
  %10 = alloca ptr, align 8
  %11 = alloca ptr, align 8
  store i32 %0, ptr %4, align 4
  store i32 %1, ptr %5, align 4
  store i32 %2, ptr %6, align 4
  call void @llvm.lifetime.start.p0(i64 8, ptr %7) #7
  call void @llvm.lifetime.start.p0(i64 216, ptr %8) #7
  call void @llvm.lifetime.start.p0(i64 4, ptr %9) #7
  call void @llvm.lifetime.start.p0(i64 8, ptr %10) #7
  call void @llvm.lifetime.start.p0(i64 8, ptr %11) #7
  %12 = getelementptr inbounds [3 x %struct.ScanKeyData], ptr %8, i64 0, i64 0
  %13 = load i32, ptr %4, align 4
  %14 = call i64 @ObjectIdGetDatum(i32 noundef %13)
  call void @ScanKeyInit(ptr noundef %12, i16 noundef signext 1, i16 noundef zeroext 3, i32 noundef 184, i64 noundef %14)
  %15 = getelementptr inbounds [3 x %struct.ScanKeyData], ptr %8, i64 0, i64 1
  %16 = load i32, ptr %5, align 4
  %17 = call i64 @ObjectIdGetDatum(i32 noundef %16)
  call void @ScanKeyInit(ptr noundef %15, i16 noundef signext 2, i16 noundef zeroext 3, i32 noundef 184, i64 noundef %17)
  %18 = load i32, ptr %6, align 4
  %19 = icmp ne i32 %18, 0
  br i1 %19, label %20, label %24

20:                                               ; preds = %3
  %21 = getelementptr inbounds [3 x %struct.ScanKeyData], ptr %8, i64 0, i64 2
  %22 = load i32, ptr %6, align 4
  %23 = call i64 @Int32GetDatum(i32 noundef %22)
  call void @ScanKeyInit(ptr noundef %21, i16 noundef signext 3, i16 noundef zeroext 3, i32 noundef 65, i64 noundef %23)
  store i32 3, ptr %9, align 4
  br label %25

24:                                               ; preds = %3
  store i32 2, ptr %9, align 4
  br label %25

25:                                               ; preds = %24, %20
  %26 = call ptr @table_open(i32 noundef 2609, i32 noundef 3)
  store ptr %26, ptr %7, align 8
  %27 = load ptr, ptr %7, align 8
  %28 = load i32, ptr %9, align 4
  %29 = getelementptr inbounds [3 x %struct.ScanKeyData], ptr %8, i64 0, i64 0
  %30 = call ptr @systable_beginscan(ptr noundef %27, i32 noundef 2675, i1 noundef zeroext true, ptr noundef null, i32 noundef %28, ptr noundef %29)
  store ptr %30, ptr %10, align 8
  br label %31

31:                                               ; preds = %35, %25
  %32 = load ptr, ptr %10, align 8
  %33 = call ptr @systable_getnext(ptr noundef %32)
  store ptr %33, ptr %11, align 8
  %34 = icmp ne ptr %33, null
  br i1 %34, label %35, label %39

35:                                               ; preds = %31
  %36 = load ptr, ptr %7, align 8
  %37 = load ptr, ptr %11, align 8
  %38 = getelementptr inbounds nuw %struct.HeapTupleData, ptr %37, i32 0, i32 1
  call void @CatalogTupleDelete(ptr noundef %36, ptr noundef %38)
  br label %31, !llvm.loop !7

39:                                               ; preds = %31
  %40 = load ptr, ptr %10, align 8
  call void @systable_endscan(ptr noundef %40)
  %41 = load ptr, ptr %7, align 8
  call void @table_close(ptr noundef %41, i32 noundef 3)
  call void @llvm.lifetime.end.p0(i64 8, ptr %11) #7
  call void @llvm.lifetime.end.p0(i64 8, ptr %10) #7
  call void @llvm.lifetime.end.p0(i64 4, ptr %9) #7
  call void @llvm.lifetime.end.p0(i64 216, ptr %8) #7
  call void @llvm.lifetime.end.p0(i64 8, ptr %7) #7
  ret void
}