; Function Attrs: nounwind uwtable
define dso_local void @DeleteComments(i32 noundef %0, i32 noundef %1, i32 noundef %2) local_unnamed_addr #0 {
  %4 = alloca [3 x %struct.ScanKeyData], align 16
  call void @llvm.lifetime.start.p0(i64 216, ptr nonnull %4) #6
  %5 = zext i32 %0 to i64
  call void @ScanKeyInit(ptr noundef nonnull %4, i16 noundef signext 1, i16 noundef zeroext 3, i32 noundef 184, i64 noundef %5) #6
  %6 = getelementptr inbounds nuw i8, ptr %4, i64 72
  %7 = zext i32 %1 to i64
  call void @ScanKeyInit(ptr noundef nonnull %6, i16 noundef signext 2, i16 noundef zeroext 3, i32 noundef 184, i64 noundef %7) #6
  %.not = icmp eq i32 %2, 0
  br i1 %.not, label %11, label %8

8:                                                ; preds = %3
  %9 = getelementptr inbounds nuw i8, ptr %4, i64 144
  %10 = sext i32 %2 to i64
  call void @ScanKeyInit(ptr noundef nonnull %9, i16 noundef signext 3, i16 noundef zeroext 3, i32 noundef 65, i64 noundef %10) #6
  br label %11

11:                                               ; preds = %3, %8
  %.0 = phi i32 [ 3, %8 ], [ 2, %3 ]
  %12 = call ptr @table_open(i32 noundef 2609, i32 noundef 3) #6
  %13 = call ptr @systable_beginscan(ptr noundef %12, i32 noundef 2675, i1 noundef zeroext true, ptr noundef null, i32 noundef %.0, ptr noundef nonnull %4) #6
  %14 = call ptr @systable_getnext(ptr noundef %13) #6
  %.not1213 = icmp eq ptr %14, null
  br i1 %.not1213, label %._crit_edge, label %.lr.ph

.lr.ph:                                           ; preds = %11, %.lr.ph
  %15 = phi ptr [ %17, %.lr.ph ], [ %14, %11 ]
  %16 = getelementptr inbounds nuw i8, ptr %15, i64 4
  call void @CatalogTupleDelete(ptr noundef %12, ptr noundef nonnull %16) #6
  %17 = call ptr @systable_getnext(ptr noundef %13) #6
  %.not12 = icmp eq ptr %17, null
  br i1 %.not12, label %._crit_edge, label %.lr.ph, !llvm.loop !4

._crit_edge:                                      ; preds = %.lr.ph, %11
  call void @systable_endscan(ptr noundef %13) #6
  call void @table_close(ptr noundef %12, i32 noundef 3) #6
  call void @llvm.lifetime.end.p0(i64 216, ptr nonnull %4) #6
  ret void
}